target datalayout = "e-m:e-p270:32:32-p271:32:32-p272:64:64-i64:64-i128:128-f80:128-n8:16:32:64-S128"
target triple = "x86_64-pc-linux-gnu"

%struct.qdldl = type { i32, ptr, ptr, ptr, ptr, ptr, ptr, ptr, ptr, i64, ptr, ptr, ptr, ptr, ptr, ptr, double, double, i64, i64, i64, ptr, ptr, ptr, ptr, ptr, ptr, ptr, ptr, ptr, ptr, ptr }
%struct.OSQPCscMatrix = type { i64, i64, ptr, ptr, ptr, i64, i64 }
%struct.OSQPVectorf_ = type { ptr, i64 }

; Function Attrs: nounwind uwtable
define internal void @LDLSolve(ptr noundef %0, ptr noundef %1, ptr noundef %2, ptr noundef %3, ptr noundef %4, ptr noundef %5) #0 {
  %7 = alloca ptr, align 8
  %8 = alloca ptr, align 8
  %9 = alloca ptr, align 8
  %10 = alloca ptr, align 8
  %11 = alloca ptr, align 8
  %12 = alloca ptr, align 8
  %13 = alloca i64, align 8
  %14 = alloca i64, align 8
  store ptr %0, ptr %7, align 8, !tbaa !70
  store ptr %1, ptr %8, align 8, !tbaa !70
  store ptr %2, ptr %9, align 8, !tbaa !8
  store ptr %3, ptr %10, align 8, !tbaa !70
  store ptr %4, ptr %11, align 8, !tbaa !76
  store ptr %5, ptr %12, align 8, !tbaa !70
  call void @llvm.lifetime.start.p0(i64 8, ptr %13) #7
  call void @llvm.lifetime.start.p0(i64 8, ptr %14) #7
  %15 = load ptr, ptr %9, align 8, !tbaa !8
  %16 = getelementptr inbounds nuw %struct.OSQPCscMatrix, ptr %15, i32 0, i32 1
  %17 = load i64, ptr %16, align 8, !tbaa !49
  store i64 %17, ptr %14, align 8, !tbaa !43
  store i64 0, ptr %13, align 8, !tbaa !43
  br label %18

18:                                               ; preds = %33, %6
  %19 = load i64, ptr %13, align 8, !tbaa !43
  %20 = load i64, ptr %14, align 8, !tbaa !43
  %21 = icmp slt i64 %19, %20
  br i1 %21, label %22, label %36

22:                                               ; preds = %18
  %23 = load ptr, ptr %8, align 8, !tbaa !70
  %24 = load ptr, ptr %11, align 8, !tbaa !76
  %25 = load i64, ptr %13, align 8, !tbaa !43
  %26 = getelementptr inbounds i64, ptr %24, i64 %25
  %27 = load i64, ptr %26, align 8, !tbaa !43
  %28 = getelementptr inbounds double, ptr %23, i64 %27
  %29 = load double, ptr %28, align 8, !tbaa !46
  %30 = load ptr, ptr %12, align 8, !tbaa !70
  %31 = load i64, ptr %13, align 8, !tbaa !43
  %32 = getelementptr inbounds double, ptr %30, i64 %31
  store double %29, ptr %32, align 8, !tbaa !46
  br label %33

33:                                               ; preds = %22
  %34 = load i64, ptr %13, align 8, !tbaa !43
  %35 = add nsw i64 %34, 1
  store i64 %35, ptr %13, align 8, !tbaa !43
  br label %18, !llvm.loop !88

36:                                               ; preds = %18
  %37 = load ptr, ptr %9, align 8, !tbaa !8
  %38 = getelementptr inbounds nuw %struct.OSQPCscMatrix, ptr %37, i32 0, i32 1
  %39 = load i64, ptr %38, align 8, !tbaa !49
  %40 = load ptr, ptr %9, align 8, !tbaa !8
  %41 = getelementptr inbounds nuw %struct.OSQPCscMatrix, ptr %40, i32 0, i32 2
  %42 = load ptr, ptr %41, align 8, !tbaa !19
  %43 = load ptr, ptr %9, align 8, !tbaa !8
  %44 = getelementptr inbounds nuw %struct.OSQPCscMatrix, ptr %43, i32 0, i32 3
  %45 = load ptr, ptr %44, align 8, !tbaa !21
  %46 = load ptr, ptr %9, align 8, !tbaa !8
  %47 = getelementptr inbounds nuw %struct.OSQPCscMatrix, ptr %46, i32 0, i32 4
  %48 = load ptr, ptr %47, align 8, !tbaa !22
  %49 = load ptr, ptr %10, align 8, !tbaa !70
  %50 = load ptr, ptr %12, align 8, !tbaa !70
  call void @QDLDL_solve(i64 noundef %39, ptr noundef %42, ptr noundef %45, ptr noundef %48, ptr noundef %49, ptr noundef %50)
  store i64 0, ptr %13, align 8, !tbaa !43
  br label %51

51:                                               ; preds = %66, %36
  %52 = load i64, ptr %13, align 8, !tbaa !43
  %53 = load i64, ptr %14, align 8, !tbaa !43
  %54 = icmp slt i64 %52, %53
  br i1 %54, label %55, label %69

55:                                               ; preds = %51
  %56 = load ptr, ptr %12, align 8, !tbaa !70
  %57 = load i64, ptr %13, align 8, !tbaa !43
  %58 = getelementptr inbounds double, ptr %56, i64 %57
  %59 = load double, ptr %58, align 8, !tbaa !46
  %60 = load ptr, ptr %7, align 8, !tbaa !70
  %61 = load ptr, ptr %11, align 8, !tbaa !76
  %62 = load i64, ptr %13, align 8, !tbaa !43
  %63 = getelementptr inbounds i64, ptr %61, i64 %62
  %64 = load i64, ptr %63, align 8, !tbaa !43
  %65 = getelementptr inbounds double, ptr %60, i64 %64
  store double %59, ptr %65, align 8, !tbaa !46
  br label %66

66:                                               ; preds = %55
  %67 = load i64, ptr %13, align 8, !tbaa !43
  %68 = add nsw i64 %67, 1
  store i64 %68, ptr %13, align 8, !tbaa !43
  br label %51, !llvm.loop !89

69:                                               ; preds = %51
  call void @llvm.lifetime.end.p0(i64 8, ptr %14) #7
  call void @llvm.lifetime.end.p0(i64 8, ptr %13) #7
  ret void
}

; Function Attrs: nounwind uwtable
define i64 @solve_linsys_qdldl(ptr noundef %0, ptr noundef %1, i64 noundef %2) #0 {
  %4 = alloca ptr, align 8
  %5 = alloca ptr, align 8
  %6 = alloca i64, align 8
  %7 = alloca i64, align 8
  %8 = alloca i64, align 8
  %9 = alloca i64, align 8
  %10 = alloca ptr, align 8
  store ptr %0, ptr %4, align 8, !tbaa !3
  store ptr %1, ptr %5, align 8, !tbaa !9
  store i64 %2, ptr %6, align 8, !tbaa !43
  call void @llvm.lifetime.start.p0(i64 8, ptr %7) #7
  call void @llvm.lifetime.start.p0(i64 8, ptr %8) #7
  %11 = load ptr, ptr %4, align 8, !tbaa !3
  %12 = getelementptr inbounds nuw %struct.qdldl, ptr %11, i32 0, i32 19
  %13 = load i64, ptr %12, align 8, !tbaa !51
  store i64 %13, ptr %8, align 8, !tbaa !43
  call void @llvm.lifetime.start.p0(i64 8, ptr %9) #7
  %14 = load ptr, ptr %4, align 8, !tbaa !3
  %15 = getelementptr inbounds nuw %struct.qdldl, ptr %14, i32 0, i32 20
  %16 = load i64, ptr %15, align 8, !tbaa !52
  store i64 %16, ptr %9, align 8, !tbaa !43
  call void @llvm.lifetime.start.p0(i64 8, ptr %10) #7
  %17 = load ptr, ptr %5, align 8, !tbaa !9
  %18 = getelementptr inbounds nuw %struct.OSQPVectorf_, ptr %17, i32 0, i32 0
  %19 = load ptr, ptr %18, align 8, !tbaa !68
  store ptr %19, ptr %10, align 8, !tbaa !70
  %20 = load ptr, ptr %4, align 8, !tbaa !3
  %21 = getelementptr inbounds nuw %struct.qdldl, ptr %20, i32 0, i32 18
  %22 = load i64, ptr %21, align 8, !tbaa !56
  %23 = icmp ne i64 %22, 0
  br i1 %23, label %24, label %39

24:                                               ; preds = %3
  %25 = load ptr, ptr %10, align 8, !tbaa !70
  %26 = load ptr, ptr %10, align 8, !tbaa !70
  %27 = load ptr, ptr %4, align 8, !tbaa !3
  %28 = getelementptr inbounds nuw %struct.qdldl, ptr %27, i32 0, i32 10
  %29 = load ptr, ptr %28, align 8, !tbaa !11
  %30 = load ptr, ptr %4, align 8, !tbaa !3
  %31 = getelementptr inbounds nuw %struct.qdldl, ptr %30, i32 0, i32 11
  %32 = load ptr, ptr %31, align 8, !tbaa !24
  %33 = load ptr, ptr %4, align 8, !tbaa !3
  %34 = getelementptr inbounds nuw %struct.qdldl, ptr %33, i32 0, i32 12
  %35 = load ptr, ptr %34, align 8, !tbaa !23
  %36 = load ptr, ptr %4, align 8, !tbaa !3
  %37 = getelementptr inbounds nuw %struct.qdldl, ptr %36, i32 0, i32 13
  %38 = load ptr, ptr %37, align 8, !tbaa !25
  call void @LDLSolve(ptr noundef %25, ptr noundef %26, ptr noundef %29, ptr noundef %32, ptr noundef %35, ptr noundef %38)
  br label %138

39:                                               ; preds = %3
  %40 = load ptr, ptr %4, align 8, !tbaa !3
  %41 = getelementptr inbounds nuw %struct.qdldl, ptr %40, i32 0, i32 14
  %42 = load ptr, ptr %41, align 8, !tbaa !26
  %43 = load ptr, ptr %10, align 8, !tbaa !70
  %44 = load ptr, ptr %4, align 8, !tbaa !3
  %45 = getelementptr inbounds nuw %struct.qdldl, ptr %44, i32 0, i32 10
  %46 = load ptr, ptr %45, align 8, !tbaa !11
  %47 = load ptr, ptr %4, align 8, !tbaa !3
  %48 = getelementptr inbounds nuw %struct.qdldl, ptr %47, i32 0, i32 11
  %49 = load ptr, ptr %48, align 8, !tbaa !24
  %50 = load ptr, ptr %4, align 8, !tbaa !3
  %51 = getelementptr inbounds nuw %struct.qdldl, ptr %50, i32 0, i32 12
  %52 = load ptr, ptr %51, align 8, !tbaa !23
  %53 = load ptr, ptr %4, align 8, !tbaa !3
  %54 = getelementptr inbounds nuw %struct.qdldl, ptr %53, i32 0, i32 13
  %55 = load ptr, ptr %54, align 8, !tbaa !25
  call void @LDLSolve(ptr noundef %42, ptr noundef %43, ptr noundef %46, ptr noundef %49, ptr noundef %52, ptr noundef %55)
  store i64 0, ptr %7, align 8, !tbaa !43
  br label %56

56:                                               ; preds = %70, %39
  %57 = load i64, ptr %7, align 8, !tbaa !43
  %58 = load i64, ptr %8, align 8, !tbaa !43
  %59 = icmp slt i64 %57, %58
  br i1 %59, label %60, label %73

60:                                               ; preds = %56
  %61 = load ptr, ptr %4, align 8, !tbaa !3
  %62 = getelementptr inbounds nuw %struct.qdldl, ptr %61, i32 0, i32 14
  %63 = load ptr, ptr %62, align 8, !tbaa !26
  %64 = load i64, ptr %7, align 8, !tbaa !43
  %65 = getelementptr inbounds double, ptr %63, i64 %64
  %66 = load double, ptr %65, align 8, !tbaa !46
  %67 = load ptr, ptr %10, align 8, !tbaa !70
  %68 = load i64, ptr %7, align 8, !tbaa !43
  %69 = getelementptr inbounds double, ptr %67, i64 %68
  store double %66, ptr %69, align 8, !tbaa !46
  br label %70

70:                                               ; preds = %60
  %71 = load i64, ptr %7, align 8, !tbaa !43
  %72 = add nsw i64 %71, 1
  store i64 %72, ptr %7, align 8, !tbaa !43
  br label %56, !llvm.loop !73

73:                                               ; preds = %56
  %74 = load ptr, ptr %4, align 8, !tbaa !3
  %75 = getelementptr inbounds nuw %struct.qdldl, ptr %74, i32 0, i32 15
  %76 = load ptr, ptr %75, align 8, !tbaa !27
  %77 = icmp ne ptr %76, null
  br i1 %77, label %78, label %109

78:                                               ; preds = %73
  store i64 0, ptr %7, align 8, !tbaa !43
  br label %79

79:                                               ; preds = %105, %78
  %80 = load i64, ptr %7, align 8, !tbaa !43
  %81 = load i64, ptr %9, align 8, !tbaa !43
  %82 = icmp slt i64 %80, %81
  br i1 %82, label %83, label %108

83:                                               ; preds = %79
  %84 = load ptr, ptr %4, align 8, !tbaa !3
  %85 = getelementptr inbounds nuw %struct.qdldl, ptr %84, i32 0, i32 15
  %86 = load ptr, ptr %85, align 8, !tbaa !27
  %87 = load i64, ptr %7, align 8, !tbaa !43
  %88 = getelementptr inbounds double, ptr %86, i64 %87
  %89 = load double, ptr %88, align 8, !tbaa !46
  %90 = load ptr, ptr %4, align 8, !tbaa !3
  %91 = getelementptr inbounds nuw %struct.qdldl, ptr %90, i32 0, i32 14
  %92 = load ptr, ptr %91, align 8, !tbaa !26
  %93 = load i64, ptr %7, align 8, !tbaa !43
  %94 = load i64, ptr %8, align 8, !tbaa !43
  %95 = add nsw i64 %93, %94
  %96 = getelementptr inbounds double, ptr %92, i64 %95
  %97 = load double, ptr %96, align 8, !tbaa !46
  %98 = load ptr, ptr %10, align 8, !tbaa !70
  %99 = load i64, ptr %7, align 8, !tbaa !43
  %100 = load i64, ptr %8, align 8, !tbaa !43
  %101 = add nsw i64 %99, %100
  %102 = getelementptr inbounds double, ptr %98, i64 %101
  %103 = load double, ptr %102, align 8, !tbaa !46
  %104 = call double @llvm.fmuladd.f64(double %89, double %97, double %103)
  store double %104, ptr %102, align 8, !tbaa !46
  br label %105

105:                                              ; preds = %83
  %106 = load i64, ptr %7, align 8, !tbaa !43
  %107 = add nsw i64 %106, 1
  store i64 %107, ptr %7, align 8, !tbaa !43
  br label %79, !llvm.loop !74

108:                                              ; preds = %79
  br label %137

109:                                              ; preds = %73
  store i64 0, ptr %7, align 8, !tbaa !43
  br label %110

110:                                              ; preds = %133, %109
  %111 = load i64, ptr %7, align 8, !tbaa !43
  %112 = load i64, ptr %9, align 8, !tbaa !43
  %113 = icmp slt i64 %111, %112
  br i1 %113, label %114, label %136

114:                                              ; preds = %110
  %115 = load ptr, ptr %4, align 8, !tbaa !3
  %116 = getelementptr inbounds nuw %struct.qdldl, ptr %115, i32 0, i32 17
  %117 = load double, ptr %116, align 8, !tbaa !55
  %118 = load ptr, ptr %4, align 8, !tbaa !3
  %119 = getelementptr inbounds nuw %struct.qdldl, ptr %118, i32 0, i32 14
  %120 = load ptr, ptr %119, align 8, !tbaa !26
  %121 = load i64, ptr %7, align 8, !tbaa !43
  %122 = load i64, ptr %8, align 8, !tbaa !43
  %123 = add nsw i64 %121, %122
  %124 = getelementptr inbounds double, ptr %120, i64 %123
  %125 = load double, ptr %124, align 8, !tbaa !46
  %126 = load ptr, ptr %10, align 8, !tbaa !70
  %127 = load i64, ptr %7, align 8, !tbaa !43
  %128 = load i64, ptr %8, align 8, !tbaa !43
  %129 = add nsw i64 %127, %128
  %130 = getelementptr inbounds double, ptr %126, i64 %129
  %131 = load double, ptr %130, align 8, !tbaa !46
  %132 = call double @llvm.fmuladd.f64(double %117, double %125, double %131)
  store double %132, ptr %130, align 8, !tbaa !46
  br label %133

133:                                              ; preds = %114
  %134 = load i64, ptr %7, align 8, !tbaa !43
  %135 = add nsw i64 %134, 1
  store i64 %135, ptr %7, align 8, !tbaa !43
  br label %110, !llvm.loop !75

136:                                              ; preds = %110
  br label %137

137:                                              ; preds = %136, %108
  br label %138

138:                                              ; preds = %137, %24
  call void @llvm.lifetime.end.p0(i64 8, ptr %10) #7
  call void @llvm.lifetime.end.p0(i64 8, ptr %9) #7
  call void @llvm.lifetime.end.p0(i64 8, ptr %8) #7
  call void @llvm.lifetime.end.p0(i64 8, ptr %7) #7
  ret i64 0
}