; Function Attrs: nounwind uwtable
define noundef i64 @solve_linsys_qdldl(ptr noundef readonly captures(none) %0, ptr noundef readonly captures(none) %1, i64 %2) #1 {
  %4 = getelementptr inbounds nuw i8, ptr %0, i64 152
  %5 = load i64, ptr %4, align 8, !tbaa !42
  %6 = getelementptr inbounds nuw i8, ptr %0, i64 160
  %7 = load i64, ptr %6, align 8, !tbaa !43
  %8 = load ptr, ptr %1, align 8, !tbaa !61
  %9 = getelementptr inbounds nuw i8, ptr %0, i64 144
  %10 = load i64, ptr %9, align 8, !tbaa !47
  %.not = icmp eq i64 %10, 0
  br i1 %.not, label %47, label %11

11:                                               ; preds = %3
  %12 = getelementptr inbounds nuw i8, ptr %0, i64 80
  %13 = load ptr, ptr %12, align 8, !tbaa !3
  %14 = getelementptr inbounds nuw i8, ptr %0, i64 88
  %15 = load ptr, ptr %14, align 8, !tbaa !19
  %16 = getelementptr inbounds nuw i8, ptr %0, i64 96
  %17 = load ptr, ptr %16, align 8, !tbaa !18
  %18 = getelementptr inbounds nuw i8, ptr %0, i64 104
  %19 = load ptr, ptr %18, align 8, !tbaa !20
  %20 = getelementptr inbounds nuw i8, ptr %13, i64 8
  %21 = load i64, ptr %20, align 8, !tbaa !40
  %22 = icmp sgt i64 %21, 0
  br i1 %22, label %.lr.ph.i, label %._crit_edge27.critedge.i

.lr.ph.i:                                         ; preds = %11, %.lr.ph.i
  %.023.i = phi i64 [ %28, %.lr.ph.i ], [ 0, %11 ]
  %23 = getelementptr inbounds nuw i64, ptr %17, i64 %.023.i
  %24 = load i64, ptr %23, align 8, !tbaa !60
  %25 = getelementptr inbounds double, ptr %8, i64 %24
  %26 = load double, ptr %25, align 8, !tbaa !63
  %27 = getelementptr inbounds nuw double, ptr %19, i64 %.023.i
  store double %26, ptr %27, align 8, !tbaa !63
  %28 = add nuw nsw i64 %.023.i, 1
  %exitcond.not.i = icmp eq i64 %28, %21
  br i1 %exitcond.not.i, label %._crit_edge.i, label %.lr.ph.i, !llvm.loop !67

._crit_edge.i:                                    ; preds = %.lr.ph.i
  %29 = getelementptr inbounds nuw i8, ptr %13, i64 16
  %30 = load ptr, ptr %29, align 8, !tbaa !14
  %31 = getelementptr inbounds nuw i8, ptr %13, i64 24
  %32 = load ptr, ptr %31, align 8, !tbaa !16
  %33 = getelementptr inbounds nuw i8, ptr %13, i64 32
  %34 = load ptr, ptr %33, align 8, !tbaa !17
  tail call void @QDLDL_solve(i64 noundef %21, ptr noundef %30, ptr noundef %32, ptr noundef %34, ptr noundef %15, ptr noundef nonnull %19) #12
  br label %.lr.ph26.i

.lr.ph26.i:                                       ; preds = %.lr.ph26.i, %._crit_edge.i
  %.124.i = phi i64 [ %40, %.lr.ph26.i ], [ 0, %._crit_edge.i ]
  %35 = getelementptr inbounds nuw double, ptr %19, i64 %.124.i
  %36 = load double, ptr %35, align 8, !tbaa !63
  %37 = getelementptr inbounds nuw i64, ptr %17, i64 %.124.i
  %38 = load i64, ptr %37, align 8, !tbaa !60
  %39 = getelementptr inbounds double, ptr %8, i64 %38
  store double %36, ptr %39, align 8, !tbaa !63
  %40 = add nuw nsw i64 %.124.i, 1
  %exitcond28.not.i = icmp eq i64 %40, %21
  br i1 %exitcond28.not.i, label %LDLSolve.exit, label %.lr.ph26.i, !llvm.loop !68

._crit_edge27.critedge.i:                         ; preds = %11
  %41 = getelementptr inbounds nuw i8, ptr %13, i64 16
  %42 = load ptr, ptr %41, align 8, !tbaa !14
  %43 = getelementptr inbounds nuw i8, ptr %13, i64 24
  %44 = load ptr, ptr %43, align 8, !tbaa !16
  %45 = getelementptr inbounds nuw i8, ptr %13, i64 32
  %46 = load ptr, ptr %45, align 8, !tbaa !17
  tail call void @QDLDL_solve(i64 noundef %21, ptr noundef %42, ptr noundef %44, ptr noundef %46, ptr noundef %15, ptr noundef %19) #12
  br label %LDLSolve.exit

47:                                               ; preds = %3
  %48 = getelementptr inbounds nuw i8, ptr %0, i64 112
  %49 = load ptr, ptr %48, align 8, !tbaa !21
  %50 = getelementptr inbounds nuw i8, ptr %0, i64 80
  %51 = load ptr, ptr %50, align 8, !tbaa !3
  %52 = getelementptr inbounds nuw i8, ptr %0, i64 88
  %53 = load ptr, ptr %52, align 8, !tbaa !19
  %54 = getelementptr inbounds nuw i8, ptr %0, i64 96
  %55 = load ptr, ptr %54, align 8, !tbaa !18
  %56 = getelementptr inbounds nuw i8, ptr %0, i64 104
  %57 = load ptr, ptr %56, align 8, !tbaa !20
  %58 = getelementptr inbounds nuw i8, ptr %51, i64 8
  %59 = load i64, ptr %58, align 8, !tbaa !40
  %60 = icmp sgt i64 %59, 0
  br i1 %60, label %.lr.ph.i47, label %._crit_edge27.critedge.i46

.lr.ph.i47:                                       ; preds = %47, %.lr.ph.i47
  %.023.i48 = phi i64 [ %66, %.lr.ph.i47 ], [ 0, %47 ]
  %61 = getelementptr inbounds nuw i64, ptr %55, i64 %.023.i48
  %62 = load i64, ptr %61, align 8, !tbaa !60
  %63 = getelementptr inbounds double, ptr %8, i64 %62
  %64 = load double, ptr %63, align 8, !tbaa !63
  %65 = getelementptr inbounds nuw double, ptr %57, i64 %.023.i48
  store double %64, ptr %65, align 8, !tbaa !63
  %66 = add nuw nsw i64 %.023.i48, 1
  %exitcond.not.i49 = icmp eq i64 %66, %59
  br i1 %exitcond.not.i49, label %._crit_edge.i50, label %.lr.ph.i47, !llvm.loop !67

._crit_edge.i50:                                  ; preds = %.lr.ph.i47
  %67 = getelementptr inbounds nuw i8, ptr %51, i64 16
  %68 = load ptr, ptr %67, align 8, !tbaa !14
  %69 = getelementptr inbounds nuw i8, ptr %51, i64 24
  %70 = load ptr, ptr %69, align 8, !tbaa !16
  %71 = getelementptr inbounds nuw i8, ptr %51, i64 32
  %72 = load ptr, ptr %71, align 8, !tbaa !17
  tail call void @QDLDL_solve(i64 noundef %59, ptr noundef %68, ptr noundef %70, ptr noundef %72, ptr noundef %53, ptr noundef nonnull %57) #12
  br label %.lr.ph26.i51

.lr.ph26.i51:                                     ; preds = %.lr.ph26.i51, %._crit_edge.i50
  %.124.i52 = phi i64 [ %78, %.lr.ph26.i51 ], [ 0, %._crit_edge.i50 ]
  %73 = getelementptr inbounds nuw double, ptr %57, i64 %.124.i52
  %74 = load double, ptr %73, align 8, !tbaa !63
  %75 = getelementptr inbounds nuw i64, ptr %55, i64 %.124.i52
  %76 = load i64, ptr %75, align 8, !tbaa !60
  %77 = getelementptr inbounds double, ptr %49, i64 %76
  store double %74, ptr %77, align 8, !tbaa !63
  %78 = add nuw nsw i64 %.124.i52, 1
  %exitcond28.not.i53 = icmp eq i64 %78, %59
  br i1 %exitcond28.not.i53, label %LDLSolve.exit54, label %.lr.ph26.i51, !llvm.loop !68

._crit_edge27.critedge.i46:                       ; preds = %47
  %79 = getelementptr inbounds nuw i8, ptr %51, i64 16
  %80 = load ptr, ptr %79, align 8, !tbaa !14
  %81 = getelementptr inbounds nuw i8, ptr %51, i64 24
  %82 = load ptr, ptr %81, align 8, !tbaa !16
  %83 = getelementptr inbounds nuw i8, ptr %51, i64 32
  %84 = load ptr, ptr %83, align 8, !tbaa !17
  tail call void @QDLDL_solve(i64 noundef %59, ptr noundef %80, ptr noundef %82, ptr noundef %84, ptr noundef %53, ptr noundef %57) #12
  br label %LDLSolve.exit54

LDLSolve.exit54:                                  ; preds = %.lr.ph26.i51, %._crit_edge27.critedge.i46
  %85 = icmp sgt i64 %5, 0
  br i1 %85, label %.lr.ph, label %._crit_edge

.lr.ph:                                           ; preds = %LDLSolve.exit54
  %86 = load ptr, ptr %48, align 8, !tbaa !21
  br label %87

87:                                               ; preds = %.lr.ph, %87
  %.058 = phi i64 [ 0, %.lr.ph ], [ %91, %87 ]
  %88 = getelementptr inbounds nuw double, ptr %86, i64 %.058
  %89 = load double, ptr %88, align 8, !tbaa !63
  %90 = getelementptr inbounds nuw double, ptr %8, i64 %.058
  store double %89, ptr %90, align 8, !tbaa !63
  %91 = add nuw nsw i64 %.058, 1
  %exitcond.not = icmp eq i64 %91, %5
  br i1 %exitcond.not, label %._crit_edge, label %87, !llvm.loop !69

._crit_edge:                                      ; preds = %87, %LDLSolve.exit54
  %92 = getelementptr inbounds nuw i8, ptr %0, i64 120
  %93 = load ptr, ptr %92, align 8, !tbaa !22
  %.not45 = icmp eq ptr %93, null
  %94 = icmp sgt i64 %7, 0
  br i1 %.not45, label %.preheader, label %.preheader55

.preheader55:                                     ; preds = %._crit_edge
  br i1 %94, label %.lr.ph60, label %LDLSolve.exit

.lr.ph60:                                         ; preds = %.preheader55
  %95 = load ptr, ptr %48, align 8, !tbaa !21
  br label %98

.preheader:                                       ; preds = %._crit_edge
  br i1 %94, label %.lr.ph62, label %LDLSolve.exit

.lr.ph62:                                         ; preds = %.preheader
  %96 = getelementptr inbounds nuw i8, ptr %0, i64 136
  %97 = load ptr, ptr %48, align 8, !tbaa !21
  br label %108

98:                                               ; preds = %.lr.ph60, %98
  %.159 = phi i64 [ 0, %.lr.ph60 ], [ %107, %98 ]
  %99 = getelementptr inbounds nuw double, ptr %93, i64 %.159
  %100 = load double, ptr %99, align 8, !tbaa !63
  %101 = add nsw i64 %.159, %5
  %102 = getelementptr inbounds double, ptr %95, i64 %101
  %103 = load double, ptr %102, align 8, !tbaa !63
  %104 = getelementptr inbounds double, ptr %8, i64 %101
  %105 = load double, ptr %104, align 8, !tbaa !63
  %106 = tail call double @llvm.fmuladd.f64(double %100, double %103, double %105)
  store double %106, ptr %104, align 8, !tbaa !63
  %107 = add nuw nsw i64 %.159, 1
  %exitcond65.not = icmp eq i64 %107, %7
  br i1 %exitcond65.not, label %LDLSolve.exit, label %98, !llvm.loop !70

108:                                              ; preds = %.lr.ph62, %108
  %.261 = phi i64 [ 0, %.lr.ph62 ], [ %116, %108 ]
  %109 = load double, ptr %96, align 8, !tbaa !46
  %110 = add nsw i64 %.261, %5
  %111 = getelementptr inbounds double, ptr %97, i64 %110
  %112 = load double, ptr %111, align 8, !tbaa !63
  %113 = getelementptr inbounds double, ptr %8, i64 %110
  %114 = load double, ptr %113, align 8, !tbaa !63
  %115 = tail call double @llvm.fmuladd.f64(double %109, double %112, double %114)
  store double %115, ptr %113, align 8, !tbaa !63
  %116 = add nuw nsw i64 %.261, 1
  %exitcond66.not = icmp eq i64 %116, %7
  br i1 %exitcond66.not, label %LDLSolve.exit, label %108, !llvm.loop !71

LDLSolve.exit:                                    ; preds = %.lr.ph26.i, %98, %108, %.preheader55, %.preheader, %._crit_edge27.critedge.i
  ret i64 0
}